Certificate:
    Data:
        Version: 3 (0x2)
        Serial Number: 4097 (0x1001)
        Signature Algorithm: md5WithRSAEncryption
        Issuer: C=US, ST=Utah, L=SLC, O=UofU, CN=Lindsay
        Validity
            Not Before: Mar 27 15:49:03 2024 GMT
            Not After : Mar 27 15:49:03 2025 GMT
        Subject: C=US, ST=Utah, O=UofU, CN=Perez
        Subject Public Key Info:
            Public Key Algorithm: rsaEncryption
                Public-Key: (4096 bit)
                Modulus:
                    00:85:41:53:06:26:b2:af:17:2e:0e:f3:bb:cd:30:
                    86:aa:4b:fd:36:d6:1c:18:70:f4:d5:47:84:85:df:
                    a9:67:a1:fe:02:cc:03:bd:eb:72:09:c0:b4:b2:59:
                    51:34:1a:e0:d4:36:4f:eb:b4:7e:fc:63:19:d4:00:
                    6e:03:ec:90:b9:22:a9:39:c7:4c:b1:e6:ae:85:8d:
                    70:d9:71:d3:e7:cd:19:20:b4:59:c4:c2:4d:86:ac:
                    75:83:fe:46:91:36:2c:47:4c:61:9f:35:45:ff:e1:
                    19:a4:86:eb:27:28:45:4d:c5:ef:f4:05:bb:dc:4a:
                    67:96:39:48:4a:bc:da:15:7c:a5:f9:e3:9f:20:cf:
                    cc:e8:6b:a2:51:c6:83:1c:1b:b6:ea:0b:34:f1:f6:
                    07:37:e6:9c:4f:7d:84:c4:89:e6:fb:d2:1f:63:7e:
                    ae:80:9c:e1:aa:e3:45:b7:2f:d6:16:cd:21:5e:31:
                    fe:65:b4:32:22:7e:35:a4:18:06:c9:f1:53:44:df:
                    64:65:5d:c7:1b:49:d4:ea:75:2a:58:8d:a0:b8:41:
                    a3:71:48:60:f0:de:cb:19:a2:79:89:2f:a8:ed:30:
                    89:9a:e7:03:6a:85:4b:d3:dc:e2:e0:be:ca:4d:c3:
                    d4:05:7f:24:b6:72:c8:47:46:96:12:fb:55:eb:38:
                    e6:f8:46:7c:01:93:68:3b:99:58:38:b6:ca:d2:51:
                    3d:c9:90:62:af:ac:74:bc:f1:cd:98:a8:84:03:06:
                    66:bf:99:29:19:b9:6f:e8:95:b1:b6:fc:80:73:12:
                    a0:07:4b:d8:6a:c0:bc:57:b8:b0:01:53:b5:4d:5a:
                    48:87:1a:f0:da:d3:33:53:47:06:93:65:54:92:19:
                    8e:3d:19:4f:3d:5e:22:ee:fc:65:2f:df:1b:94:09:
                    bc:7a:bf:25:29:2e:51:99:22:ce:19:3c:53:b1:94:
                    a0:38:1b:4a:41:65:39:f2:d2:b2:21:59:47:cf:e5:
                    ff:29:ba:30:c6:62:0a:e4:82:5f:44:95:d6:b2:1f:
                    dd:74:ef:79:94:ba:33:94:2b:cd:e0:05:31:46:e5:
                    1d:6e:33:16:46:fd:12:22:9f:60:85:a0:51:c8:72:
                    cd:ec:45:cd:54:24:c1:1e:54:15:a3:10:81:90:03:
                    a5:e4:c0:e2:8f:2d:03:b0:97:13:5b:c0:ea:b9:e6:
                    20:3f:5d:7b:49:41:84:6b:fa:9e:e0:af:62:2c:4d:
                    d7:89:2a:74:0a:7d:ee:6e:e6:f7:17:6b:d0:04:24:
                    9c:2a:7a:ee:d8:b9:6e:a5:64:b9:02:1f:6b:bc:4c:
                    f7:16:56:ad:be:53:58:e9:92:57:7e:72:b2:f7:29:
                    3e:df:b5
                Exponent: 65537 (0x10001)
        X509v3 extensions:
            X509v3 Basic Constraints: 
                CA:FALSE
            Netscape Comment: 
                OpenSSL Generated Certificate
            X509v3 Subject Key Identifier: 
                0E:21:CB:73:AE:31:A8:66:06:07:23:4B:2F:52:C5:2B:B1:C6:BF:50
            X509v3 Authority Key Identifier: 
                keyid:31:80:48:D6:0D:6E:02:63:54:47:07:CD:C4:2C:C1:2B:C0:CE:C7:4F
                DirName:/C=US/ST=Utah/L=SLC/O=UofU/CN=Lindsay
                serial:15:71:FF:D2:2F:34:49:2C:3D:3E:37:3C:26:EA:08:DC:E5:09:49:25
    Signature Algorithm: md5WithRSAEncryption
    Signature Value:
        8b:af:31:4b:d8:d7:74:39:7a:1a:77:7e:53:f8:6a:b5:6f:6a:
        24:fd:89:79:c4:06:51:1b:12:52:50:68:98:92:f1:89:6a:4b:
        5d:4e:0f:6a:a1:f9:e4:6a:dd:62:05:9a:47:45:fe:d0:55:48:
        9a:ac:aa:53:96:f0:e9:ca:5d:5c:9e:f3:07:2c:12:d0:e1:49:
        c3:17:58:1e:1a:35:52:bd:02:cb:77:fa:7f:8a:6b:d3:5e:7f:
        ed:26:84:99:97:6e:27:53:98:c3:b1:9f:97:54:36:ac:a3:9f:
        23:51:49:b9:a0:57:b9:68:7f:ed:97:bf:a6:8d:c2:53:e8:43:
        bc:4c:21:ff:3f:59:2d:0b:14:39:1f:f1:93:55:fb:eb:6d:e1:
        b7:b8:fd:0e:3f:8f:6d:8b:18:c7:05:4e:ae:d6:9b:b4:35:17:
        48:f7:f4:36:05:47:2b:3a:39:83:02:f3:0f:92:b5:d1:a4:b1:
        22:f2:9c:58:e3:1a:bd:12:29:34:ac:95:83:b5:83:f0:2a:cf:
        21:9a:3c:43:df:98:e7:cb:1e:23:2f:f0:43:06:5b:c3:f1:52:
        7c:4f:3c:b3:c0:39:78:9a:30:1c:a6:ef:47:9b:dd:bc:73:21:
        82:15:97:87:7e:c0:2a:74:ec:66:34:0d:33:e6:a4:a9:34:93:
        3d:e2:c3:8f:f5:29:1a:84:7a:d7:3d:58:cd:9f:18:d0:01:d0:
        54:1f:9b:16:a3:0f:d7:39:26:21:4a:4c:b5:03:05:54:53:61:
        66:f0:35:68:52:8d:36:cd:28:89:68:fb:33:d6:8c:30:1a:e1:
        21:93:a8:44:2a:15:b1:76:47:c0:fd:21:f4:43:21:17:98:3d:
        a3:83:a2:f4:14:99:dd:4a:d9:ac:7a:7e:8c:b3:2b:cd:52:eb:
        d7:ef:1e:b2:27:b2:14:7d:fd:3b:2a:32:d9:a0:05:84:b3:44:
        a5:a0:2f:2f:fd:41:31:5d:a0:f9:4f:31:8e:0d:a1:ce:6f:f8:
        76:ec:d8:35:4a:9c:48:c7:3b:24:9f:2c:ba:9c:69:ab:b6:b6:
        ae:bf:2a:66:24:ea:86:6a:96:19:67:cc:f4:8d:28:d1:c6:f9:
        e5:f3:62:f7:d5:35:8d:cc:82:40:32:87:4f:93:45:53:c0:ed:
        a0:eb:8f:74:0a:bd:08:88:46:6e:59:b0:7b:81:8d:f3:13:c4:
        df:bc:bb:9f:b8:69:60:df:05:b3:49:06:8e:bf:f0:34:f2:46:
        54:7a:c6:d9:20:76:e2:1d:a0:b8:d8:56:9a:28:b7:b0:64:94:
        d2:ef:50:dc:b6:c1:5e:c2:73:ca:b6:f0:4a:c5:5f:2e:d9:4b:
        68:4b:1b:f4:81:5a:3a:c2
-----BEGIN CERTIFICATE-----
MIIF5zCCA8+gAwIBAgICEAEwDQYJKoZIhvcNAQEEBQAwSzELMAkGA1UEBhMCVVMx
DTALBgNVBAgMBFV0YWgxDDAKBgNVBAcMA1NMQzENMAsGA1UECgwEVW9mVTEQMA4G
A1UEAwwHTGluZHNheTAeFw0yNDAzMjcxNTQ5MDNaFw0yNTAzMjcxNTQ5MDNaMDsx
CzAJBgNVBAYTAlVTMQ0wCwYDVQQIDARVdGFoMQ0wCwYDVQQKDARVb2ZVMQ4wDAYD
VQQDDAVQZXJlejCCAiIwDQYJKoZIhvcNAQEBBQADggIPADCCAgoCggIBAIVBUwYm
sq8XLg7zu80whqpL/TbWHBhw9NVHhIXfqWeh/gLMA73rcgnAtLJZUTQa4NQ2T+u0
fvxjGdQAbgPskLkiqTnHTLHmroWNcNlx0+fNGSC0WcTCTYasdYP+RpE2LEdMYZ81
Rf/hGaSG6ycoRU3F7/QFu9xKZ5Y5SEq82hV8pfnjnyDPzOhrolHGgxwbtuoLNPH2
BzfmnE99hMSJ5vvSH2N+roCc4arjRbcv1hbNIV4x/mW0MiJ+NaQYBsnxU0TfZGVd
xxtJ1Op1KliNoLhBo3FIYPDeyxmieYkvqO0wiZrnA2qFS9Pc4uC+yk3D1AV/JLZy
yEdGlhL7Ves45vhGfAGTaDuZWDi2ytJRPcmQYq+sdLzxzZiohAMGZr+ZKRm5b+iV
sbb8gHMSoAdL2GrAvFe4sAFTtU1aSIca8NrTM1NHBpNlVJIZjj0ZTz1eIu78ZS/f
G5QJvHq/JSkuUZkizhk8U7GUoDgbSkFlOfLSsiFZR8/l/ym6MMZiCuSCX0SV1rIf
3XTveZS6M5QrzeAFMUblHW4zFkb9EiKfYIWgUchyzexFzVQkwR5UFaMQgZADpeTA
4o8tA7CXE1vA6rnmID9de0lBhGv6nuCvYixN14kqdAp97m7m9xdr0AQknCp67ti5
bqVkuQIfa7xM9xZWrb5TWOmSV35ysvcpPt+1AgMBAAGjgeQwgeEwCQYDVR0TBAIw
ADAsBglghkgBhvhCAQ0EHxYdT3BlblNTTCBHZW5lcmF0ZWQgQ2VydGlmaWNhdGUw
HQYDVR0OBBYEFA4hy3OuMahmBgcjSy9SxSuxxr9QMIGGBgNVHSMEfzB9gBQxgEjW
DW4CY1RHB83ELMErwM7HT6FPpE0wSzELMAkGA1UEBhMCVVMxDTALBgNVBAgMBFV0
YWgxDDAKBgNVBAcMA1NMQzENMAsGA1UECgwEVW9mVTEQMA4GA1UEAwwHTGluZHNh
eYIUFXH/0i80SSw9Pjc8JuoI3OUJSSUwDQYJKoZIhvcNAQEEBQADggIBAIuvMUvY
13Q5ehp3flP4arVvaiT9iXnEBlEbElJQaJiS8YlqS11OD2qh+eRq3WIFmkdF/tBV
SJqsqlOW8OnKXVye8wcsEtDhScMXWB4aNVK9Ast3+n+Ka9Nef+0mhJmXbidTmMOx
n5dUNqyjnyNRSbmgV7lof+2Xv6aNwlPoQ7xMIf8/WS0LFDkf8ZNV++tt4be4/Q4/
j22LGMcFTq7Wm7Q1F0j39DYFRys6OYMC8w+StdGksSLynFjjGr0SKTSslYO1g/Aq
zyGaPEPfmOfLHiMv8EMGW8PxUnxPPLPAOXiaMBym70eb3bxzIYIVl4d+wCp07GY0
DTPmpKk0kz3iw4/1KRqEetc9WM2fGNAB0FQfmxajD9c5JiFKTLUDBVRTYWbwNWhS
jTbNKIlo+zPWjDAa4SGTqEQqFbF2R8D9IfRDIReYPaODovQUmd1K2ax6foyzK81S
69fvHrInshR9/TsqMtmgBYSzRKWgLy/9QTFdoPlPMY4Noc5v+Hbs2DVKnEjHOySf
LLqcaau2tq6/KmYk6oZqlhlnzPSNKNHG+eXzYvfVNY3MgkAyh0+TRVPA7aDrj3QK
vQiIRm5ZsHuBjfMTxN+8u5+4aWDfBbNJBo6/8DTyRlR6xtkgduIdoLjYVpoot7Bk
lNLvUNy2wV7Cc8q28ErFXy7ZS2hLG/SBWjrC
-----END CERTIFICATE-----
