Certificate:
    Data:
        Version: 3 (0x2)
        Serial Number: 4096 (0x1000)
        Signature Algorithm: md5WithRSAEncryption
        Issuer: C=US, ST=Utah, L=SLC, O=UofU, CN=Lindsay
        Validity
            Not Before: Mar 27 15:48:23 2024 GMT
            Not After : Mar 27 15:48:23 2025 GMT
        Subject: C=US, ST=Utah, O=UofU, CN=Haslam
        Subject Public Key Info:
            Public Key Algorithm: rsaEncryption
                Public-Key: (4096 bit)
                Modulus:
                    00:d1:ac:4c:e8:c3:67:69:49:b0:97:21:25:16:e5:
                    f8:79:e1:98:95:69:12:4b:29:87:13:cb:a5:64:c4:
                    5f:3a:f4:19:b1:ce:cf:2b:f1:f1:f5:9a:b5:68:40:
                    0d:19:e4:dd:47:ba:7c:71:04:86:07:44:1a:dc:60:
                    bb:68:ff:1a:0a:9e:7b:3e:70:2d:ca:a3:b3:57:21:
                    ae:7c:f5:b9:5b:e6:fd:57:c0:06:66:24:64:e7:60:
                    ed:b8:53:d6:28:95:b5:f7:98:54:dd:6d:53:8c:a6:
                    56:a7:c5:18:38:7e:2e:66:ac:f0:94:23:65:8a:28:
                    a9:c8:0e:45:92:de:4f:af:58:70:b4:1e:7d:bd:9e:
                    4b:a1:be:30:c2:c4:e5:6e:6f:46:aa:e2:2d:3f:f1:
                    3f:98:81:c1:12:6d:00:a2:0f:3b:b2:20:99:16:61:
                    ec:37:0e:49:8c:22:3e:b0:de:d2:f8:1c:85:af:56:
                    9f:44:47:5c:04:95:f6:83:4c:ec:1f:37:22:04:19:
                    7a:79:0a:20:6c:12:54:7c:7e:c3:39:aa:cc:19:50:
                    6e:c1:aa:24:86:cc:66:da:25:7e:7c:2c:cb:49:d7:
                    d1:f2:30:ab:ef:34:37:60:24:34:0e:51:96:b2:5e:
                    5f:ad:49:ff:1a:38:00:8c:24:3a:a3:28:e6:74:fb:
                    ad:e0:ae:ac:4a:4a:31:06:fe:c7:af:df:ad:9f:92:
                    07:4b:13:a8:75:1b:76:b6:a8:5c:33:18:af:aa:79:
                    7d:36:1a:01:47:ee:29:5d:ec:92:7f:30:4b:34:cf:
                    4c:16:40:91:4e:78:94:9c:4f:52:7b:88:30:e1:a7:
                    d6:ba:6a:b7:26:c8:37:9a:ce:30:cd:10:5a:20:bc:
                    ea:4c:42:1b:f4:37:68:7a:94:d8:d5:21:b2:e3:0a:
                    e6:7e:a6:f9:69:03:c3:be:d2:27:25:d8:38:36:b6:
                    1d:b5:50:72:11:7d:2c:38:cd:bc:6c:f1:15:b8:53:
                    2b:58:ed:ee:2e:e9:cf:9e:d0:e6:e0:74:57:de:41:
                    77:f6:95:92:dc:98:b0:12:5e:82:fc:9f:fe:74:e5:
                    73:f3:e9:4f:0c:dc:f8:a9:97:2d:bd:15:ef:4a:ea:
                    46:d9:0c:c0:cf:59:2e:06:ea:a0:5b:d5:9f:71:c4:
                    67:f0:16:be:3a:18:d9:f8:c6:05:1a:e9:fc:ee:66:
                    b4:56:00:45:0d:64:d6:c4:d7:1d:34:0c:74:28:a3:
                    b6:2d:91:dd:f6:c1:7f:00:b6:0b:7c:2a:99:b8:59:
                    81:7f:3d:e9:65:42:09:db:b4:51:fa:08:41:cd:53:
                    3f:7d:5d:72:d2:25:7d:80:fb:b3:7d:90:fd:22:58:
                    fb:a5:5b
                Exponent: 65537 (0x10001)
        X509v3 extensions:
            X509v3 Basic Constraints: 
                CA:FALSE
            Netscape Comment: 
                OpenSSL Generated Certificate
            X509v3 Subject Key Identifier: 
                08:4C:05:25:86:D2:4F:1C:0C:48:73:9A:85:D8:6E:48:CB:81:5F:28
            X509v3 Authority Key Identifier: 
                keyid:31:80:48:D6:0D:6E:02:63:54:47:07:CD:C4:2C:C1:2B:C0:CE:C7:4F
                DirName:/C=US/ST=Utah/L=SLC/O=UofU/CN=Lindsay
                serial:15:71:FF:D2:2F:34:49:2C:3D:3E:37:3C:26:EA:08:DC:E5:09:49:25
    Signature Algorithm: md5WithRSAEncryption
    Signature Value:
        02:e9:10:b1:b3:c2:18:54:1a:ff:0a:d1:63:0b:6a:09:19:03:
        4f:54:a0:8f:2b:3a:50:e4:85:88:29:e4:a2:9f:4d:93:10:6a:
        41:98:4a:98:08:77:8b:9f:64:9c:e8:f4:7a:c8:68:52:55:10:
        88:e0:49:90:70:83:29:76:1e:06:d7:b0:76:f5:15:47:ef:8f:
        bb:ad:2c:53:57:2c:27:46:0b:00:c7:6c:d8:ef:3e:dc:d6:0a:
        df:db:f7:fc:a9:22:3c:77:97:62:ec:0c:ca:e1:ed:4f:fd:9e:
        51:44:c8:d3:c8:43:ee:f8:58:a2:61:6e:11:45:b5:45:e6:75:
        d3:6e:c2:4b:55:da:19:5b:b8:ac:7d:b6:ae:12:2b:36:4a:be:
        02:c5:fe:3d:68:a9:06:1f:70:11:4e:cd:b7:72:75:37:cd:22:
        ea:b0:55:e8:d6:37:4f:6d:70:09:9e:08:98:42:f8:88:40:2a:
        77:20:ed:5c:67:74:1d:a8:72:1f:bc:0e:d1:e2:74:df:0c:3b:
        c5:cd:b3:ce:fe:01:c4:8f:81:eb:6c:40:53:e0:da:47:ed:0b:
        5a:25:c0:54:d2:9d:ef:ee:2b:f1:9b:1c:4b:c6:94:c3:e5:c3:
        90:b4:b7:55:42:77:a8:ad:3d:64:c9:bb:10:dc:c2:50:a9:46:
        64:79:f3:77:f0:d9:9b:4f:eb:17:ef:cb:70:1a:64:d8:0b:a9:
        a1:c5:65:34:c3:97:f4:85:79:03:bb:4d:db:a9:d0:82:d8:e0:
        dd:9f:6e:2e:ed:1a:c0:9f:d9:96:80:74:d9:bd:75:25:6e:88:
        3f:1d:8b:2c:d1:06:cc:b2:d4:d0:13:b1:e9:b8:df:2a:8d:a5:
        b0:2f:6b:da:e2:39:6e:1f:db:2f:85:2f:c6:ba:d6:8e:5c:a3:
        d9:1a:42:67:ca:68:7f:c9:09:37:5c:a4:c5:9a:59:52:62:2d:
        10:74:1a:61:27:05:05:bf:bd:e3:e1:a1:b0:eb:6f:5b:35:9b:
        e1:05:d1:62:fe:b1:ca:d1:68:0c:36:28:50:93:65:1b:57:14:
        a5:92:38:ef:78:08:85:cd:f5:9e:99:8c:0a:f4:a0:90:49:7d:
        0e:f9:fc:80:8c:ed:ca:0c:c5:72:52:ec:e5:ba:08:1b:ed:8f:
        8b:e9:9e:6c:13:64:7d:8f:f2:be:e3:87:ad:7d:0b:66:2c:35:
        bd:66:9b:df:c6:1d:ad:25:b0:2a:34:21:91:3c:98:7e:cb:53:
        8d:cd:b9:44:dd:36:31:28:29:b2:1c:1c:03:f0:ab:e1:cf:86:
        62:dd:53:5e:ac:17:e6:3f:3e:89:7f:c0:a2:fe:5b:aa:5f:65:
        36:7a:1f:2d:34:98:4c:f9
-----BEGIN CERTIFICATE-----
MIIF6DCCA9CgAwIBAgICEAAwDQYJKoZIhvcNAQEEBQAwSzELMAkGA1UEBhMCVVMx
DTALBgNVBAgMBFV0YWgxDDAKBgNVBAcMA1NMQzENMAsGA1UECgwEVW9mVTEQMA4G
A1UEAwwHTGluZHNheTAeFw0yNDAzMjcxNTQ4MjNaFw0yNTAzMjcxNTQ4MjNaMDwx
CzAJBgNVBAYTAlVTMQ0wCwYDVQQIDARVdGFoMQ0wCwYDVQQKDARVb2ZVMQ8wDQYD
VQQDDAZIYXNsYW0wggIiMA0GCSqGSIb3DQEBAQUAA4ICDwAwggIKAoICAQDRrEzo
w2dpSbCXISUW5fh54ZiVaRJLKYcTy6VkxF869Bmxzs8r8fH1mrVoQA0Z5N1Hunxx
BIYHRBrcYLto/xoKnns+cC3Ko7NXIa589blb5v1XwAZmJGTnYO24U9YolbX3mFTd
bVOMplanxRg4fi5mrPCUI2WKKKnIDkWS3k+vWHC0Hn29nkuhvjDCxOVub0aq4i0/
8T+YgcESbQCiDzuyIJkWYew3DkmMIj6w3tL4HIWvVp9ER1wElfaDTOwfNyIEGXp5
CiBsElR8fsM5qswZUG7BqiSGzGbaJX58LMtJ19HyMKvvNDdgJDQOUZayXl+tSf8a
OACMJDqjKOZ0+63grqxKSjEG/sev362fkgdLE6h1G3a2qFwzGK+qeX02GgFH7ild
7JJ/MEs0z0wWQJFOeJScT1J7iDDhp9a6arcmyDeazjDNEFogvOpMQhv0N2h6lNjV
IbLjCuZ+pvlpA8O+0icl2Dg2th21UHIRfSw4zbxs8RW4UytY7e4u6c+e0ObgdFfe
QXf2lZLcmLASXoL8n/505XPz6U8M3Piply29Fe9K6kbZDMDPWS4G6qBb1Z9xxGfw
Fr46GNn4xgUa6fzuZrRWAEUNZNbE1x00DHQoo7Ytkd32wX8Atgt8Kpm4WYF/Pell
QgnbtFH6CEHNUz99XXLSJX2A+7N9kP0iWPulWwIDAQABo4HkMIHhMAkGA1UdEwQC
MAAwLAYJYIZIAYb4QgENBB8WHU9wZW5TU0wgR2VuZXJhdGVkIENlcnRpZmljYXRl
MB0GA1UdDgQWBBQITAUlhtJPHAxIc5qF2G5Iy4FfKDCBhgYDVR0jBH8wfYAUMYBI
1g1uAmNURwfNxCzBK8DOx0+hT6RNMEsxCzAJBgNVBAYTAlVTMQ0wCwYDVQQIDARV
dGFoMQwwCgYDVQQHDANTTEMxDTALBgNVBAoMBFVvZlUxEDAOBgNVBAMMB0xpbmRz
YXmCFBVx/9IvNEksPT43PCbqCNzlCUklMA0GCSqGSIb3DQEBBAUAA4ICAQAC6RCx
s8IYVBr/CtFjC2oJGQNPVKCPKzpQ5IWIKeSin02TEGpBmEqYCHeLn2Sc6PR6yGhS
VRCI4EmQcIMpdh4G17B29RVH74+7rSxTVywnRgsAx2zY7z7c1grf2/f8qSI8d5di
7AzK4e1P/Z5RRMjTyEPu+FiiYW4RRbVF5nXTbsJLVdoZW7isfbauEis2Sr4Cxf49
aKkGH3ARTs23cnU3zSLqsFXo1jdPbXAJngiYQviIQCp3IO1cZ3QdqHIfvA7R4nTf
DDvFzbPO/gHEj4HrbEBT4NpH7QtaJcBU0p3v7ivxmxxLxpTD5cOQtLdVQneorT1k
ybsQ3MJQqUZkefN38NmbT+sX78twGmTYC6mhxWU0w5f0hXkDu03bqdCC2ODdn24u
7RrAn9mWgHTZvXUlbog/HYss0QbMstTQE7HpuN8qjaWwL2va4jluH9svhS/GutaO
XKPZGkJnymh/yQk3XKTFmllSYi0QdBphJwUFv73j4aGw629bNZvhBdFi/rHK0WgM
NihQk2UbVxSlkjjveAiFzfWemYwK9KCQSX0O+fyAjO3KDMVyUuzluggb7Y+L6Z5s
E2R9j/K+44etfQtmLDW9Zpvfxh2tJbAqNCGRPJh+y1ONzblE3TYxKCmyHBwD8Kvh
z4Zi3VNerBfmPz6Jf8Ci/luqX2U2eh8tNJhM+Q==
-----END CERTIFICATE-----
